target datalayout = "e-m:e-p270:32:32-p271:32:32-p272:64:64-i64:64-i128:128-f80:128-n8:16:32:64-S128"
target triple = "x86_64-pc-linux-gnu"

%union.pthread_mutex_t = type { %struct.__pthread_mutex_s }
%struct.__pthread_mutex_s = type { i32, i32, i32, i32, i32, i16, i16, %struct.__pthread_internal_list }
%struct.__pthread_internal_list = type { ptr, ptr }
%struct.settings = type { i64, i32, i32, i32, ptr, i32, i32, i32, ptr, ptr, i32, double, i32, i32, i32, i8, i32, i32, i8, i32, i32, i32, i32, i32, i32, i8, i8, i8, i8, i8, i8, i8, i32, i32, double, double, i32, i32, i8, i32, i8, i8, ptr, i32, i32, i32, i32, double, double, i32, i8, i32, i32, i32, i32, i32, i8, i8, i8, ptr, i32, i32, i32, i32, i32, i32, i32, i32, i32, i32, double, i8, i32, i32, ptr, i32 }
%struct.timeval = type { i64, i64 }
%struct._stritem = type { ptr, ptr, ptr, i32, i32, i32, i16, i16, i8, i8, [0 x %union.anon] }
%union.anon = type { i64 }
%struct._lru_bump_buf = type { ptr, ptr, %union.pthread_mutex_t, ptr, i64 }
%struct.thread_stats = type { %union.pthread_mutex_t, i64, i64, i64, i64, i64, i64, i64, i64, i64, i64, i64, i64, i64, i64, i64, i64, i64, i64, i64, i64, i64, i64, i64, i64, i64, i64, i64, i64, i64, i64, [64 x %struct.slab_stats], [256 x i64], i64, i64, i64 }
%struct.slab_stats = type { i64, i64, i64, i64, i64, i64, i64, i64 }
%struct.LIBEVENT_THREAD = type { i64, ptr, %struct.thread_notify, %struct.thread_notify, %union.pthread_mutex_t, %struct.iop_head_s, i32, i32, i32, %struct.thread_stats, [3 x %struct.io_queue_s], ptr, ptr, ptr, ptr, ptr, ptr, ptr, i32 }
%struct.thread_notify = type { %struct.event, i32 }
%struct.event = type { %struct.event_callback, %union.anon.1, i32, ptr, %union.anon.3, i16, i16, %struct.timeval }
%struct.event_callback = type { %struct.anon, i16, i8, i8, %union.anon.0, ptr }
%struct.anon = type { ptr, ptr }
%union.anon.0 = type { ptr }
%union.anon.1 = type { %struct.anon.2 }
%struct.anon.2 = type { ptr, ptr }
%union.anon.3 = type { %struct.anon.4 }
%struct.anon.4 = type { %struct.anon.5, %struct.timeval }
%struct.anon.5 = type { ptr, ptr }
%struct.iop_head_s = type { ptr, ptr }
%struct.io_queue_s = type { ptr, %struct.iop_head_s, ptr, i32 }
%struct.lru_bump_entry = type { ptr, i32 }

@settings = external global %struct.settings, align 8
@current_time = external global i32, align 4

; Function Attrs: nounwind uwtable
define internal zeroext i1 @lru_bump_async(ptr noundef %0, ptr noundef %1, i32 noundef %2) #0 {
  %4 = alloca ptr, align 8
  %5 = alloca ptr, align 8
  %6 = alloca i32, align 4
  %7 = alloca i8, align 1
  %8 = alloca ptr, align 8
  store ptr %0, ptr %4, align 8, !tbaa !92
  store ptr %1, ptr %5, align 8, !tbaa !16
  store i32 %2, ptr %6, align 4, !tbaa !4
  call void @llvm.lifetime.start.p0(i64 1, ptr %7) #9
  store i8 1, ptr %7, align 1, !tbaa !105
  %9 = load ptr, ptr %5, align 8, !tbaa !16
  %10 = getelementptr inbounds nuw %struct._stritem, ptr %9, i32 0, i32 6
  %11 = load i16, ptr %10, align 4, !tbaa !34
  %12 = add i16 %11, 1
  store i16 %12, ptr %10, align 4, !tbaa !34
  %13 = load ptr, ptr %4, align 8, !tbaa !92
  %14 = getelementptr inbounds nuw %struct._lru_bump_buf, ptr %13, i32 0, i32 2
  %15 = call i32 @pthread_mutex_lock(ptr noundef %14) #9
  call void @llvm.lifetime.start.p0(i64 8, ptr %8) #9
  %16 = load ptr, ptr %4, align 8, !tbaa !92
  %17 = getelementptr inbounds nuw %struct._lru_bump_buf, ptr %16, i32 0, i32 3
  %18 = load ptr, ptr %17, align 8, !tbaa !132
  %19 = call ptr @bipbuf_request(ptr noundef %18, i32 noundef 16)
  store ptr %19, ptr %8, align 8, !tbaa !33
  %20 = load ptr, ptr %8, align 8, !tbaa !33
  %21 = icmp ne ptr %20, null
  br i1 %21, label %22, label %40

22:                                               ; preds = %3
  %23 = load ptr, ptr %5, align 8, !tbaa !16
  %24 = load ptr, ptr %8, align 8, !tbaa !33
  %25 = getelementptr inbounds nuw %struct.lru_bump_entry, ptr %24, i32 0, i32 0
  store ptr %23, ptr %25, align 8, !tbaa !133
  %26 = load i32, ptr %6, align 4, !tbaa !4
  %27 = load ptr, ptr %8, align 8, !tbaa !33
  %28 = getelementptr inbounds nuw %struct.lru_bump_entry, ptr %27, i32 0, i32 1
  store i32 %26, ptr %28, align 8, !tbaa !135
  %29 = load ptr, ptr %4, align 8, !tbaa !92
  %30 = getelementptr inbounds nuw %struct._lru_bump_buf, ptr %29, i32 0, i32 3
  %31 = load ptr, ptr %30, align 8, !tbaa !132
  %32 = call i32 @bipbuf_push(ptr noundef %31, i32 noundef 16)
  %33 = icmp eq i32 %32, 0
  br i1 %33, label %34, label %39

34:                                               ; preds = %22
  store i8 0, ptr %7, align 1, !tbaa !105
  %35 = load ptr, ptr %4, align 8, !tbaa !92
  %36 = getelementptr inbounds nuw %struct._lru_bump_buf, ptr %35, i32 0, i32 4
  %37 = load i64, ptr %36, align 8, !tbaa !94
  %38 = add i64 %37, 1
  store i64 %38, ptr %36, align 8, !tbaa !94
  br label %39

39:                                               ; preds = %34, %22
  br label %45

40:                                               ; preds = %3
  store i8 0, ptr %7, align 1, !tbaa !105
  %41 = load ptr, ptr %4, align 8, !tbaa !92
  %42 = getelementptr inbounds nuw %struct._lru_bump_buf, ptr %41, i32 0, i32 4
  %43 = load i64, ptr %42, align 8, !tbaa !94
  %44 = add i64 %43, 1
  store i64 %44, ptr %42, align 8, !tbaa !94
  br label %45

45:                                               ; preds = %40, %39
  %46 = load i8, ptr %7, align 1, !tbaa !105, !range !26, !noundef !27
  %47 = trunc i8 %46 to i1
  br i1 %47, label %53, label %48

48:                                               ; preds = %45
  %49 = load ptr, ptr %5, align 8, !tbaa !16
  %50 = getelementptr inbounds nuw %struct._stritem, ptr %49, i32 0, i32 6
  %51 = load i16, ptr %50, align 4, !tbaa !34
  %52 = add i16 %51, -1
  store i16 %52, ptr %50, align 4, !tbaa !34
  br label %53

53:                                               ; preds = %48, %45
  %54 = load ptr, ptr %4, align 8, !tbaa !92
  %55 = getelementptr inbounds nuw %struct._lru_bump_buf, ptr %54, i32 0, i32 2
  %56 = call i32 @pthread_mutex_unlock(ptr noundef %55) #9
  %57 = load i8, ptr %7, align 1, !tbaa !105, !range !26, !noundef !27
  %58 = trunc i8 %57 to i1
  call void @llvm.lifetime.end.p0(i64 8, ptr %8) #9
  call void @llvm.lifetime.end.p0(i64 1, ptr %7) #9
  ret i1 %58
}

; Function Attrs: nounwind uwtable
define dso_local void @do_item_bump(ptr noundef %0, ptr noundef %1, i32 noundef %2) #0 {
  %4 = alloca ptr, align 8
  %5 = alloca ptr, align 8
  %6 = alloca i32, align 4
  store ptr %0, ptr %4, align 8, !tbaa !33
  store ptr %1, ptr %5, align 8, !tbaa !16
  store i32 %2, ptr %6, align 4, !tbaa !4
  %7 = load i8, ptr getelementptr inbounds nuw (%struct.settings, ptr @settings, i32 0, i32 29), align 8, !tbaa !25, !range !26, !noundef !27
  %8 = trunc i8 %7 to i1
  br i1 %8, label %9, label %65

9:                                                ; preds = %3
  %10 = load ptr, ptr %5, align 8, !tbaa !16
  %11 = getelementptr inbounds nuw %struct._stritem, ptr %10, i32 0, i32 7
  %12 = load i16, ptr %11, align 2, !tbaa !34
  %13 = zext i16 %12 to i32
  %14 = and i32 %13, 16
  %15 = icmp eq i32 %14, 0
  br i1 %15, label %16, label %64

16:                                               ; preds = %9
  %17 = load ptr, ptr %5, align 8, !tbaa !16
  %18 = getelementptr inbounds nuw %struct._stritem, ptr %17, i32 0, i32 7
  %19 = load i16, ptr %18, align 2, !tbaa !34
  %20 = zext i16 %19 to i32
  %21 = and i32 %20, 8
  %22 = icmp eq i32 %21, 0
  br i1 %22, label %23, label %30

23:                                               ; preds = %16
  %24 = load ptr, ptr %5, align 8, !tbaa !16
  %25 = getelementptr inbounds nuw %struct._stritem, ptr %24, i32 0, i32 7
  %26 = load i16, ptr %25, align 2, !tbaa !34
  %27 = zext i16 %26 to i32
  %28 = or i32 %27, 8
  %29 = trunc i32 %28 to i16
  store i16 %29, ptr %25, align 2, !tbaa !34
  br label %63

30:                                               ; preds = %16
  %31 = load ptr, ptr %5, align 8, !tbaa !16
  %32 = getelementptr inbounds nuw %struct._stritem, ptr %31, i32 0, i32 7
  %33 = load i16, ptr %32, align 2, !tbaa !34
  %34 = zext i16 %33 to i32
  %35 = or i32 %34, 16
  %36 = trunc i32 %35 to i16
  store i16 %36, ptr %32, align 2, !tbaa !34
  %37 = load ptr, ptr %5, align 8, !tbaa !16
  %38 = getelementptr inbounds nuw %struct._stritem, ptr %37, i32 0, i32 8
  %39 = load i8, ptr %38, align 8, !tbaa !30
  %40 = zext i8 %39 to i32
  %41 = and i32 %40, 192
  %42 = icmp ne i32 %41, 128
  br i1 %42, label %43, label %47

43:                                               ; preds = %30
  %44 = load volatile i32, ptr @current_time, align 4, !tbaa !4
  %45 = load ptr, ptr %5, align 8, !tbaa !16
  %46 = getelementptr inbounds nuw %struct._stritem, ptr %45, i32 0, i32 3
  store i32 %44, ptr %46, align 8, !tbaa !4
  br label %62

47:                                               ; preds = %30
  %48 = load ptr, ptr %4, align 8, !tbaa !33
  %49 = getelementptr inbounds nuw %struct.LIBEVENT_THREAD, ptr %48, i32 0, i32 17
  %50 = load ptr, ptr %49, align 8, !tbaa !131
  %51 = load ptr, ptr %5, align 8, !tbaa !16
  %52 = load i32, ptr %6, align 4, !tbaa !4
  %53 = call zeroext i1 @lru_bump_async(ptr noundef %50, ptr noundef %51, i32 noundef %52)
  br i1 %53, label %61, label %54

54:                                               ; preds = %47
  %55 = load ptr, ptr %5, align 8, !tbaa !16
  %56 = getelementptr inbounds nuw %struct._stritem, ptr %55, i32 0, i32 7
  %57 = load i16, ptr %56, align 2, !tbaa !34
  %58 = zext i16 %57 to i32
  %59 = and i32 %58, -17
  %60 = trunc i32 %59 to i16
  store i16 %60, ptr %56, align 2, !tbaa !34
  br label %61

61:                                               ; preds = %54, %47
  br label %62

62:                                               ; preds = %61, %43
  br label %63

63:                                               ; preds = %62, %23
  br label %64

64:                                               ; preds = %63, %9
  br label %73

65:                                               ; preds = %3
  %66 = load ptr, ptr %5, align 8, !tbaa !16
  %67 = getelementptr inbounds nuw %struct._stritem, ptr %66, i32 0, i32 7
  %68 = load i16, ptr %67, align 2, !tbaa !34
  %69 = zext i16 %68 to i32
  %70 = or i32 %69, 8
  %71 = trunc i32 %70 to i16
  store i16 %71, ptr %67, align 2, !tbaa !34
  %72 = load ptr, ptr %5, align 8, !tbaa !16
  call void @do_item_update(ptr noundef %72)
  br label %73

73:                                               ; preds = %65, %64
  ret void
}