; Function Attrs: nounwind uwtable
define dso_local void @do_item_bump(ptr noundef readonly captures(none) %0, ptr noundef %1, i32 noundef %2) local_unnamed_addr #0 {
  %4 = load i8, ptr getelementptr inbounds nuw (i8, ptr @settings, i64 136), align 8, !tbaa !23, !range !24, !noundef !25
  %5 = trunc nuw i8 %4 to i1
  %6 = getelementptr inbounds nuw i8, ptr %1, i64 38
  %7 = load i16, ptr %6, align 2, !tbaa !31
  br i1 %5, label %8, label %50

8:                                                ; preds = %3
  %9 = zext i16 %7 to i32
  %10 = and i32 %9, 16
  %11 = icmp eq i32 %10, 0
  br i1 %11, label %12, label %52

12:                                               ; preds = %8
  %13 = and i32 %9, 8
  %14 = icmp eq i32 %13, 0
  br i1 %14, label %15, label %17

15:                                               ; preds = %12
  %16 = or i16 %7, 8
  store i16 %16, ptr %6, align 2, !tbaa !31
  br label %52

17:                                               ; preds = %12
  %18 = or i16 %7, 16
  store i16 %18, ptr %6, align 2, !tbaa !31
  %19 = getelementptr inbounds nuw i8, ptr %1, i64 40
  %20 = load i8, ptr %19, align 8, !tbaa !30
  %.not = icmp slt i8 %20, -64
  br i1 %.not, label %24, label %21

21:                                               ; preds = %17
  %22 = load volatile i32, ptr @current_time, align 4, !tbaa !22
  %23 = getelementptr inbounds nuw i8, ptr %1, i64 24
  store i32 %22, ptr %23, align 8, !tbaa !22
  br label %52

24:                                               ; preds = %17
  %25 = getelementptr inbounds nuw i8, ptr %0, i64 6976
  %26 = load ptr, ptr %25, align 8, !tbaa !117
  %27 = getelementptr inbounds nuw i8, ptr %1, i64 36
  %28 = load i16, ptr %27, align 4, !tbaa !31
  %29 = add i16 %28, 1
  store i16 %29, ptr %27, align 4, !tbaa !31
  %30 = getelementptr inbounds nuw i8, ptr %26, i64 16
  %31 = tail call i32 @pthread_mutex_lock(ptr noundef nonnull %30) #19
  %32 = getelementptr inbounds nuw i8, ptr %26, i64 56
  %33 = load ptr, ptr %32, align 8, !tbaa !118
  %34 = tail call ptr @bipbuf_request(ptr noundef %33, i32 noundef 16) #19
  %.not.i = icmp eq ptr %34, null
  br i1 %.not.i, label %41, label %35

35:                                               ; preds = %24
  store ptr %1, ptr %34, align 8, !tbaa !119
  %36 = getelementptr inbounds nuw i8, ptr %34, i64 8
  store i32 %2, ptr %36, align 8, !tbaa !121
  %37 = load ptr, ptr %32, align 8, !tbaa !118
  %38 = tail call i32 @bipbuf_push(ptr noundef %37, i32 noundef 16) #19
  %39 = icmp eq i32 %38, 0
  br i1 %39, label %41, label %lru_bump_async.exit.thread

lru_bump_async.exit.thread:                       ; preds = %35
  %40 = tail call i32 @pthread_mutex_unlock(ptr noundef nonnull %30) #19
  br label %52

41:                                               ; preds = %35, %24
  %42 = getelementptr inbounds nuw i8, ptr %26, i64 64
  %43 = load i64, ptr %42, align 8, !tbaa !87
  %44 = add i64 %43, 1
  store i64 %44, ptr %42, align 8, !tbaa !87
  %45 = load i16, ptr %27, align 4, !tbaa !31
  %46 = add i16 %45, -1
  store i16 %46, ptr %27, align 4, !tbaa !31
  %47 = tail call i32 @pthread_mutex_unlock(ptr noundef nonnull %30) #19
  %48 = load i16, ptr %6, align 2, !tbaa !31
  %49 = and i16 %48, -17
  store i16 %49, ptr %6, align 2, !tbaa !31
  br label %52

50:                                               ; preds = %3
  %51 = or i16 %7, 8
  store i16 %51, ptr %6, align 2, !tbaa !31
  tail call void @do_item_update(ptr noundef %1)
  br label %52

52:                                               ; preds = %lru_bump_async.exit.thread, %8, %21, %41, %15, %50
  ret void
}